; Function Attrs: mustprogress nofree norecurse nosync nounwind willreturn memory(readwrite, inaccessiblemem: none) uwtable
define void @_ZN6marisa8grimoire4trie9LoudsTrie5cacheINS1_3KeyEEEvmmfc(ptr nocapture noundef nonnull readonly align 8 dereferenceable(1136) %0, i64 noundef %1, i64 noundef %2, float noundef %3, i8 noundef signext %4) local_unnamed_addr #8 align 2 {
  %6 = shl i64 %1, 5
  %7 = zext i8 %4 to i64
  %8 = xor i64 %6, %7
  %9 = xor i64 %8, %1
  %10 = getelementptr inbounds i8, ptr %0, i64 1056
  %11 = load i64, ptr %10, align 8
  %12 = and i64 %11, %9
  %13 = getelementptr inbounds i8, ptr %0, i64 1016
  %14 = load ptr, ptr %13, align 8
  %15 = getelementptr inbounds %"class.marisa::grimoire::trie::Cache", ptr %14, i64 %12
  %16 = getelementptr inbounds i8, ptr %15, i64 8
  %17 = load float, ptr %16, align 4
  %18 = fcmp olt float %17, %3
  br i1 %18, label %19, label %26

19:                                               ; preds = %5
  %20 = trunc i64 %1 to i32
  store i32 %20, ptr %15, align 4
  %21 = load ptr, ptr %13, align 8
  %22 = trunc i64 %2 to i32
  %23 = getelementptr inbounds %"class.marisa::grimoire::trie::Cache", ptr %21, i64 %12, i32 1
  store i32 %22, ptr %23, align 4
  %24 = load ptr, ptr %13, align 8
  %25 = getelementptr inbounds %"class.marisa::grimoire::trie::Cache", ptr %24, i64 %12, i32 2
  store float %3, ptr %25, align 4
  br label %26

26:                                               ; preds = %19, %5
  ret void
}